target datalayout = "e-m:e-p270:32:32-p271:32:32-p272:64:64-i64:64-i128:128-f80:128-n8:16:32:64-S128"
target triple = "x86_64-unknown-linux-gnu"

@.str = private unnamed_addr constant [8 x i8] c"Ed25519\00", align 1
@.str.1 = private unnamed_addr constant [6 x i8] c"Ed448\00", align 1
@.str.2 = private unnamed_addr constant [7 x i8] c"X25519\00", align 1
@.str.3 = private unnamed_addr constant [5 x i8] c"X448\00", align 1

; Function Attrs: mustprogress nounwind uwtable
define dso_local noundef i32 @_ZN4node6crypto19GetOKPCurveFromNameEPKc(ptr noundef %name) #4 {
entry:
  %name.addr = alloca ptr, align 8
  %nid = alloca i32, align 4
  store ptr %name, ptr %name.addr, align 8
  %0 = load ptr, ptr %name.addr, align 8
  %call = call i32 @strcmp(ptr noundef %0, ptr noundef @.str) #14
  %cmp = icmp eq i32 %call, 0
  br i1 %cmp, label %if.then, label %if.else

if.then:                                          ; preds = %entry
  store i32 1087, ptr %nid, align 4
  br label %if.end15

if.else:                                          ; preds = %entry
  %1 = load ptr, ptr %name.addr, align 8
  %call1 = call i32 @strcmp(ptr noundef %1, ptr noundef @.str.1) #14
  %cmp2 = icmp eq i32 %call1, 0
  br i1 %cmp2, label %if.then3, label %if.else4

if.then3:                                         ; preds = %if.else
  store i32 1088, ptr %nid, align 4
  br label %if.end14

if.else4:                                         ; preds = %if.else
  %2 = load ptr, ptr %name.addr, align 8
  %call5 = call i32 @strcmp(ptr noundef %2, ptr noundef @.str.2) #14
  %cmp6 = icmp eq i32 %call5, 0
  br i1 %cmp6, label %if.then7, label %if.else8

if.then7:                                         ; preds = %if.else4
  store i32 1034, ptr %nid, align 4
  br label %if.end13

if.else8:                                         ; preds = %if.else4
  %3 = load ptr, ptr %name.addr, align 8
  %call9 = call i32 @strcmp(ptr noundef %3, ptr noundef @.str.3) #14
  %cmp10 = icmp eq i32 %call9, 0
  br i1 %cmp10, label %if.then11, label %if.else12

if.then11:                                        ; preds = %if.else8
  store i32 1035, ptr %nid, align 4
  br label %if.end

if.else12:                                        ; preds = %if.else8
  store i32 0, ptr %nid, align 4
  br label %if.end

if.end:                                           ; preds = %if.else12, %if.then11
  br label %if.end13

if.end13:                                         ; preds = %if.end, %if.then7
  br label %if.end14

if.end14:                                         ; preds = %if.end13, %if.then3
  br label %if.end15

if.end15:                                         ; preds = %if.end14, %if.then
  %4 = load i32, ptr %nid, align 4
  ret i32 %4
}