; Function Attrs: mustprogress nofree nounwind willreturn memory(argmem: read) uwtable
define dso_local noundef i32 @_ZN4node6crypto19GetOKPCurveFromNameEPKc(ptr nocapture noundef readonly %name) local_unnamed_addr #4 {
entry:
  %call = tail call i32 @strcmp(ptr noundef nonnull dereferenceable(1) %name, ptr noundef nonnull dereferenceable(8) @.str) #23
  %cmp = icmp eq i32 %call, 0
  br i1 %cmp, label %if.end15, label %if.else

if.else:                                          ; preds = %entry
  %call1 = tail call i32 @strcmp(ptr noundef nonnull dereferenceable(1) %name, ptr noundef nonnull dereferenceable(6) @.str.1) #23
  %cmp2 = icmp eq i32 %call1, 0
  br i1 %cmp2, label %if.end15, label %if.else4

if.else4:                                         ; preds = %if.else
  %call5 = tail call i32 @strcmp(ptr noundef nonnull dereferenceable(1) %name, ptr noundef nonnull dereferenceable(7) @.str.2) #23
  %cmp6 = icmp eq i32 %call5, 0
  br i1 %cmp6, label %if.end15, label %if.else8

if.else8:                                         ; preds = %if.else4
  %call9 = tail call i32 @strcmp(ptr noundef nonnull dereferenceable(1) %name, ptr noundef nonnull dereferenceable(5) @.str.3) #23
  %cmp10 = icmp eq i32 %call9, 0
  %. = select i1 %cmp10, i32 1035, i32 0
  br label %if.end15

if.end15:                                         ; preds = %if.else8, %if.else4, %if.else, %entry
  %nid.0 = phi i32 [ 1087, %entry ], [ 1088, %if.else ], [ 1034, %if.else4 ], [ %., %if.else8 ]
  ret i32 %nid.0
}